target datalayout = "e-m:e-p270:32:32-p271:32:32-p272:64:64-i64:64-i128:128-f80:128-n8:16:32:64-S128"
target triple = "x86_64-pc-linux-gnu"

%struct.H5B_class_t = type { i32, i64, ptr, ptr, ptr, ptr, ptr, ptr, i8, i8, i32, ptr, ptr, ptr, ptr }
%struct.H5O_stab_t = type { i64, i64 }

@H5B_SNODE = external global [1 x %struct.H5B_class_t], align 16
@.str = private unnamed_addr constant [101 x i8] c"generated/home/dtcxzyw/WorkSpace/Projects/compilers/llvm-opt-benchmark/bench/hdf5/hdf5/src/H5Gstab.c\00", align 1
@__func__.H5G__stab_create_components = private unnamed_addr constant [28 x i8] c"H5G__stab_create_components\00", align 1
@H5E_SYM_g = external global i64, align 8
@H5E_CANTINIT_g = external global i64, align 8
@.str.1 = private unnamed_addr constant [20 x i8] c"can't create B-tree\00", align 1
@.str.2 = private unnamed_addr constant [18 x i8] c"can't create heap\00", align 1
@H5E_PROTECT_g = external global i64, align 8
@.str.3 = private unnamed_addr constant [36 x i8] c"unable to protect symbol table heap\00", align 1
@.str.4 = private unnamed_addr constant [1 x i8] zeroinitializer, align 1
@H5E_CANTINSERT_g = external global i64, align 8
@.str.5 = private unnamed_addr constant [28 x i8] c"can't insert name into heap\00", align 1
@.str.6 = private unnamed_addr constant [38 x i8] c"unable to unprotect symbol table heap\00", align 1

; Function Attrs: nounwind uwtable
define i32 @H5G__stab_create_components(ptr noundef %0, ptr noundef %1, i64 noundef %2) #0 {
  %4 = alloca ptr, align 8
  %5 = alloca ptr, align 8
  %6 = alloca i64, align 8
  %7 = alloca ptr, align 8
  %8 = alloca i64, align 8
  %9 = alloca i32, align 4
  %10 = alloca i8, align 1
  store ptr %0, ptr %4, align 8
  store ptr %1, ptr %5, align 8
  store i64 %2, ptr %6, align 8
  store ptr null, ptr %7, align 8
  store i32 0, ptr %9, align 4
  store i8 0, ptr %10, align 1
  %11 = load ptr, ptr %4, align 8
  %12 = load ptr, ptr %5, align 8
  %13 = getelementptr inbounds %struct.H5O_stab_t, ptr %12, i32 0, i32 0
  %14 = call i32 @H5B_create(ptr noundef %11, ptr noundef @H5B_SNODE, ptr noundef null, ptr noundef %13)
  %15 = icmp slt i32 %14, 0
  br i1 %15, label %16, label %31

16:                                               ; preds = %3
  br label %17

17:                                               ; preds = %16
  br label %18

18:                                               ; preds = %17
  br label %19

19:                                               ; preds = %18
  %20 = load i64, ptr @H5E_SYM_g, align 8
  %21 = load i64, ptr @H5E_CANTINIT_g, align 8
  %22 = call i32 (ptr, ptr, i32, i64, i64, ptr, ...) @H5E_printf_stack(ptr noundef @.str, ptr noundef @__func__.H5G__stab_create_components, i32 noundef 133, i64 noundef %20, i64 noundef %21, ptr noundef @.str.1)
  br label %23

23:                                               ; preds = %19
  store i8 1, ptr %10, align 1
  %24 = load i8, ptr %10, align 1
  %25 = trunc i8 %24 to i1
  %26 = zext i1 %25 to i8
  store i8 %26, ptr %10, align 1
  br label %27

27:                                               ; preds = %23
  br label %28

28:                                               ; preds = %27
  store i32 -1, ptr %9, align 4
  br label %96

29:                                               ; No predecessors!
  br label %30

30:                                               ; preds = %29
  br label %31

31:                                               ; preds = %30, %3
  %32 = load ptr, ptr %4, align 8
  %33 = load i64, ptr %6, align 8
  %34 = load ptr, ptr %5, align 8
  %35 = getelementptr inbounds %struct.H5O_stab_t, ptr %34, i32 0, i32 1
  %36 = call i32 @H5HL_create(ptr noundef %32, i64 noundef %33, ptr noundef %35)
  %37 = icmp slt i32 %36, 0
  br i1 %37, label %38, label %53

38:                                               ; preds = %31
  br label %39

39:                                               ; preds = %38
  br label %40

40:                                               ; preds = %39
  br label %41

41:                                               ; preds = %40
  %42 = load i64, ptr @H5E_SYM_g, align 8
  %43 = load i64, ptr @H5E_CANTINIT_g, align 8
  %44 = call i32 (ptr, ptr, i32, i64, i64, ptr, ...) @H5E_printf_stack(ptr noundef @.str, ptr noundef @__func__.H5G__stab_create_components, i32 noundef 137, i64 noundef %42, i64 noundef %43, ptr noundef @.str.2)
  br label %45

45:                                               ; preds = %41
  store i8 1, ptr %10, align 1
  %46 = load i8, ptr %10, align 1
  %47 = trunc i8 %46 to i1
  %48 = zext i1 %47 to i8
  store i8 %48, ptr %10, align 1
  br label %49

49:                                               ; preds = %45
  br label %50

50:                                               ; preds = %49
  store i32 -1, ptr %9, align 4
  br label %96

51:                                               ; No predecessors!
  br label %52

52:                                               ; preds = %51
  br label %53

53:                                               ; preds = %52, %31
  %54 = load ptr, ptr %4, align 8
  %55 = load ptr, ptr %5, align 8
  %56 = getelementptr inbounds %struct.H5O_stab_t, ptr %55, i32 0, i32 1
  %57 = load i64, ptr %56, align 8
  %58 = call ptr @H5HL_protect(ptr noundef %54, i64 noundef %57, i32 noundef 0)
  store ptr %58, ptr %7, align 8
  %59 = icmp eq ptr null, %58
  br i1 %59, label %60, label %75

60:                                               ; preds = %53
  br label %61

61:                                               ; preds = %60
  br label %62

62:                                               ; preds = %61
  br label %63

63:                                               ; preds = %62
  %64 = load i64, ptr @H5E_SYM_g, align 8
  %65 = load i64, ptr @H5E_PROTECT_g, align 8
  %66 = call i32 (ptr, ptr, i32, i64, i64, ptr, ...) @H5E_printf_stack(ptr noundef @.str, ptr noundef @__func__.H5G__stab_create_components, i32 noundef 141, i64 noundef %64, i64 noundef %65, ptr noundef @.str.3)
  br label %67

67:                                               ; preds = %63
  store i8 1, ptr %10, align 1
  %68 = load i8, ptr %10, align 1
  %69 = trunc i8 %68 to i1
  %70 = zext i1 %69 to i8
  store i8 %70, ptr %10, align 1
  br label %71

71:                                               ; preds = %67
  br label %72

72:                                               ; preds = %71
  store i32 -1, ptr %9, align 4
  br label %96

73:                                               ; No predecessors!
  br label %74

74:                                               ; preds = %73
  br label %75

75:                                               ; preds = %74, %53
  %76 = load ptr, ptr %4, align 8
  %77 = load ptr, ptr %7, align 8
  %78 = call i32 @H5HL_insert(ptr noundef %76, ptr noundef %77, i64 noundef 1, ptr noundef @.str.4, ptr noundef %8)
  %79 = icmp slt i32 %78, 0
  br i1 %79, label %80, label %95

80:                                               ; preds = %75
  br label %81

81:                                               ; preds = %80
  br label %82

82:                                               ; preds = %81
  br label %83

83:                                               ; preds = %82
  %84 = load i64, ptr @H5E_SYM_g, align 8
  %85 = load i64, ptr @H5E_CANTINSERT_g, align 8
  %86 = call i32 (ptr, ptr, i32, i64, i64, ptr, ...) @H5E_printf_stack(ptr noundef @.str, ptr noundef @__func__.H5G__stab_create_components, i32 noundef 145, i64 noundef %84, i64 noundef %85, ptr noundef @.str.5)
  br label %87

87:                                               ; preds = %83
  store i8 1, ptr %10, align 1
  %88 = load i8, ptr %10, align 1
  %89 = trunc i8 %88 to i1
  %90 = zext i1 %89 to i8
  store i8 %90, ptr %10, align 1
  br label %91

91:                                               ; preds = %87
  br label %92

92:                                               ; preds = %91
  store i32 -1, ptr %9, align 4
  br label %96

93:                                               ; No predecessors!
  br label %94

94:                                               ; preds = %93
  br label %95

95:                                               ; preds = %94, %75
  br label %96

96:                                               ; preds = %95, %92, %72, %50, %28
  %97 = load ptr, ptr %7, align 8
  %98 = icmp ne ptr %97, null
  br i1 %98, label %99, label %116

99:                                               ; preds = %96
  %100 = load ptr, ptr %7, align 8
  %101 = call i32 @H5HL_unprotect(ptr noundef %100)
  %102 = icmp eq i32 -1, %101
  br i1 %102, label %103, label %116

103:                                              ; preds = %99
  br label %104

104:                                              ; preds = %103
  br label %105

105:                                              ; preds = %104
  br label %106

106:                                              ; preds = %105
  %107 = load i64, ptr @H5E_SYM_g, align 8
  %108 = load i64, ptr @H5E_PROTECT_g, align 8
  %109 = call i32 (ptr, ptr, i32, i64, i64, ptr, ...) @H5E_printf_stack(ptr noundef @.str, ptr noundef @__func__.H5G__stab_create_components, i32 noundef 155, i64 noundef %107, i64 noundef %108, ptr noundef @.str.6)
  br label %110

110:                                              ; preds = %106
  store i8 1, ptr %10, align 1
  %111 = load i8, ptr %10, align 1
  %112 = trunc i8 %111 to i1
  %113 = zext i1 %112 to i8
  store i8 %113, ptr %10, align 1
  br label %114

114:                                              ; preds = %110
  store i32 -1, ptr %9, align 4
  br label %115

115:                                              ; preds = %114
  br label %116

116:                                              ; preds = %115, %99, %96
  %117 = load i32, ptr %9, align 4
  ret i32 %117
}