; Function Attrs: nounwind uwtable
define range(i32 -1, 1) i32 @H5G__stab_create_components(ptr noundef %0, ptr noundef %1, i64 noundef %2) local_unnamed_addr #0 {
  %4 = alloca i64, align 8
  %5 = tail call i32 @H5B_create(ptr noundef %0, ptr noundef nonnull @H5B_SNODE, ptr noundef null, ptr noundef %1) #6
  %6 = icmp slt i32 %5, 0
  br i1 %6, label %7, label %11

7:                                                ; preds = %3
  %8 = load i64, ptr @H5E_SYM_g, align 8
  %9 = load i64, ptr @H5E_CANTINIT_g, align 8
  %10 = tail call i32 (ptr, ptr, i32, i64, i64, ptr, ...) @H5E_printf_stack(ptr noundef nonnull @.str, ptr noundef nonnull @__func__.H5G__stab_create_components, i32 noundef 133, i64 noundef %8, i64 noundef %9, ptr noundef nonnull @.str.1) #6
  br label %.thread

11:                                               ; preds = %3
  %12 = getelementptr inbounds i8, ptr %1, i64 8
  %13 = tail call i32 @H5HL_create(ptr noundef %0, i64 noundef %2, ptr noundef nonnull %12) #6
  %14 = icmp slt i32 %13, 0
  br i1 %14, label %15, label %19

15:                                               ; preds = %11
  %16 = load i64, ptr @H5E_SYM_g, align 8
  %17 = load i64, ptr @H5E_CANTINIT_g, align 8
  %18 = tail call i32 (ptr, ptr, i32, i64, i64, ptr, ...) @H5E_printf_stack(ptr noundef nonnull @.str, ptr noundef nonnull @__func__.H5G__stab_create_components, i32 noundef 137, i64 noundef %16, i64 noundef %17, ptr noundef nonnull @.str.2) #6
  br label %.thread

19:                                               ; preds = %11
  %20 = load i64, ptr %12, align 8
  %21 = tail call ptr @H5HL_protect(ptr noundef %0, i64 noundef %20, i32 noundef 0) #6
  %22 = icmp eq ptr %21, null
  br i1 %22, label %23, label %27

23:                                               ; preds = %19
  %24 = load i64, ptr @H5E_SYM_g, align 8
  %25 = load i64, ptr @H5E_PROTECT_g, align 8
  %26 = tail call i32 (ptr, ptr, i32, i64, i64, ptr, ...) @H5E_printf_stack(ptr noundef nonnull @.str, ptr noundef nonnull @__func__.H5G__stab_create_components, i32 noundef 141, i64 noundef %24, i64 noundef %25, ptr noundef nonnull @.str.3) #6
  br label %.thread

27:                                               ; preds = %19
  %28 = call i32 @H5HL_insert(ptr noundef %0, ptr noundef nonnull %21, i64 noundef 1, ptr noundef nonnull @.str.4, ptr noundef nonnull %4) #6
  %29 = icmp slt i32 %28, 0
  br i1 %29, label %30, label %34

30:                                               ; preds = %27
  %31 = load i64, ptr @H5E_SYM_g, align 8
  %32 = load i64, ptr @H5E_CANTINSERT_g, align 8
  %33 = call i32 (ptr, ptr, i32, i64, i64, ptr, ...) @H5E_printf_stack(ptr noundef nonnull @.str, ptr noundef nonnull @__func__.H5G__stab_create_components, i32 noundef 145, i64 noundef %31, i64 noundef %32, ptr noundef nonnull @.str.5) #6
  br label %34

34:                                               ; preds = %30, %27
  %.0 = phi i32 [ -1, %30 ], [ 0, %27 ]
  %35 = call i32 @H5HL_unprotect(ptr noundef nonnull %21) #6
  %36 = icmp eq i32 %35, -1
  br i1 %36, label %37, label %.thread

37:                                               ; preds = %34
  %38 = load i64, ptr @H5E_SYM_g, align 8
  %39 = load i64, ptr @H5E_PROTECT_g, align 8
  %40 = call i32 (ptr, ptr, i32, i64, i64, ptr, ...) @H5E_printf_stack(ptr noundef nonnull @.str, ptr noundef nonnull @__func__.H5G__stab_create_components, i32 noundef 155, i64 noundef %38, i64 noundef %39, ptr noundef nonnull @.str.6) #6
  br label %.thread

.thread:                                          ; preds = %23, %15, %7, %37, %34
  %.1 = phi i32 [ -1, %37 ], [ %.0, %34 ], [ -1, %7 ], [ -1, %15 ], [ -1, %23 ]
  ret i32 %.1
}